target datalayout = "e-m:e-p270:32:32-p271:32:32-p272:64:64-i64:64-i128:128-f80:128-n8:16:32:64-S128"
target triple = "x86_64-pc-linux-gnu"

@hf_reload_overlay_specific = internal global i32 0, align 4
@.str.5 = private unnamed_addr constant [13 x i8] c"CHORD-RELOAD\00", align 1
@reload_topology_plugin = internal global ptr @.str.5, align 8
@hf_reload_length_uint16 = internal global i32 0, align 4
@hf_reload_chordleave = internal global i32 0, align 4
@hf_reload_chordleave_type = internal global i32 0, align 4
@hf_reload_chordleave_predecessors = internal global i32 0, align 4
@hf_reload_chordleave_successors = internal global i32 0, align 4
@hf_reload_leavereq = internal global i32 0, align 4
@hf_reload_leavereq_leaving_peer_id = internal global i32 0, align 4
@ett_reload_chordleave = internal global i32 0, align 4
@ett_reload_overlay_specific = internal global i32 0, align 4
@ett_reload_leavereq = internal global i32 0, align 4
@reload_nodeid_length = internal global i32 16, align 4

; Function Attrs: null_pointer_is_valid sspstrong uwtable
define internal i32 @dissect_opaque(ptr noundef %0, ptr noundef %1, ptr noundef %2, i32 noundef %3, i16 noundef zeroext %4, i16 noundef zeroext %5, i32 noundef %6) #0 {
  %8 = alloca ptr, align 8
  %9 = alloca ptr, align 8
  %10 = alloca ptr, align 8
  %11 = alloca i32, align 4
  %12 = alloca i16, align 2
  %13 = alloca i16, align 2
  %14 = alloca i32, align 4
  store ptr %0, ptr %8, align 8
  store ptr %1, ptr %9, align 8
  store ptr %2, ptr %10, align 8
  store i32 %3, ptr %11, align 4
  store i16 %4, ptr %12, align 2
  store i16 %5, ptr %13, align 2
  store i32 %6, ptr %14, align 4
  %15 = load ptr, ptr %8, align 8
  %16 = load ptr, ptr %9, align 8
  %17 = load ptr, ptr %10, align 8
  %18 = load i32, ptr %11, align 4
  %19 = load i16, ptr %12, align 2
  %20 = load i16, ptr %13, align 2
  %21 = load i32, ptr %14, align 4
  %22 = call i32 @dissect_opaque_string_or_data(ptr noundef %15, ptr noundef %16, ptr noundef %17, i32 noundef %18, i16 noundef zeroext %19, i16 noundef zeroext %20, i32 noundef %21, i1 noundef zeroext false)
  ret i32 %22
}

; Function Attrs: null_pointer_is_valid sspstrong uwtable
define internal i32 @dissect_chordleavedata(ptr noundef %0, ptr noundef %1, ptr noundef %2, i16 noundef zeroext %3, i16 noundef zeroext %4) #0 {
  %6 = alloca ptr, align 8
  %7 = alloca ptr, align 8
  %8 = alloca ptr, align 8
  %9 = alloca i16, align 2
  %10 = alloca i16, align 2
  %11 = alloca ptr, align 8
  %12 = alloca ptr, align 8
  %13 = alloca i16, align 2
  %14 = alloca i8, align 1
  store ptr %0, ptr %6, align 8
  store ptr %1, ptr %7, align 8
  store ptr %2, ptr %8, align 8
  store i16 %3, ptr %9, align 2
  store i16 %4, ptr %10, align 2
  call void @llvm.lifetime.start.p0(i64 8, ptr %11) #8
  call void @llvm.lifetime.start.p0(i64 8, ptr %12) #8
  call void @llvm.lifetime.start.p0(i64 2, ptr %13) #8
  store i16 0, ptr %13, align 2
  call void @llvm.lifetime.start.p0(i64 1, ptr %14) #8
  %15 = load ptr, ptr %8, align 8
  %16 = load i32, ptr @hf_reload_chordleave, align 4
  %17 = load ptr, ptr %6, align 8
  %18 = load i16, ptr %9, align 2
  %19 = zext i16 %18 to i32
  %20 = load i16, ptr %10, align 2
  %21 = zext i16 %20 to i32
  %22 = call ptr @proto_tree_add_item(ptr noundef %15, i32 noundef %16, ptr noundef %17, i32 noundef %19, i32 noundef %21, i32 noundef 0)
  store ptr %22, ptr %11, align 8
  %23 = load ptr, ptr %11, align 8
  %24 = load i32, ptr @ett_reload_chordleave, align 4
  %25 = call ptr @proto_item_add_subtree(ptr noundef %23, i32 noundef %24)
  store ptr %25, ptr %12, align 8
  %26 = load ptr, ptr %6, align 8
  %27 = load i16, ptr %9, align 2
  %28 = zext i16 %27 to i32
  %29 = load i16, ptr %13, align 2
  %30 = zext i16 %29 to i32
  %31 = add i32 %28, %30
  %32 = call zeroext i8 @tvb_get_uint8(ptr noundef %26, i32 noundef %31)
  store i8 %32, ptr %14, align 1
  %33 = load ptr, ptr %12, align 8
  %34 = load i32, ptr @hf_reload_chordleave_type, align 4
  %35 = load ptr, ptr %6, align 8
  %36 = load i16, ptr %9, align 2
  %37 = zext i16 %36 to i32
  %38 = load i16, ptr %13, align 2
  %39 = zext i16 %38 to i32
  %40 = add i32 %37, %39
  %41 = load i8, ptr %14, align 1
  %42 = zext i8 %41 to i32
  %43 = call ptr @proto_tree_add_uint(ptr noundef %33, i32 noundef %34, ptr noundef %35, i32 noundef %40, i32 noundef 1, i32 noundef %42)
  %44 = load i16, ptr %13, align 2
  %45 = zext i16 %44 to i32
  %46 = add i32 %45, 1
  %47 = trunc i32 %46 to i16
  store i16 %47, ptr %13, align 2
  %48 = load i8, ptr %14, align 1
  %49 = zext i8 %48 to i32
  switch i32 %49, label %94 [
    i32 1, label %50
    i32 2, label %72
  ]

50:                                               ; preds = %5
  %51 = load ptr, ptr %6, align 8
  %52 = load ptr, ptr %7, align 8
  %53 = load ptr, ptr %12, align 8
  %54 = load i16, ptr %9, align 2
  %55 = zext i16 %54 to i32
  %56 = load i16, ptr %13, align 2
  %57 = zext i16 %56 to i32
  %58 = add i32 %55, %57
  %59 = trunc i32 %58 to i16
  %60 = load i16, ptr %10, align 2
  %61 = zext i16 %60 to i32
  %62 = load i16, ptr %13, align 2
  %63 = zext i16 %62 to i32
  %64 = sub i32 %61, %63
  %65 = trunc i32 %64 to i16
  %66 = load i32, ptr @hf_reload_chordleave_successors, align 4
  %67 = call i32 @dissect_nodeid_list(ptr noundef %51, ptr noundef %52, ptr noundef %53, i16 noundef zeroext %59, i16 noundef zeroext %65, i32 noundef %66)
  %68 = load i16, ptr %13, align 2
  %69 = zext i16 %68 to i32
  %70 = add i32 %69, %67
  %71 = trunc i32 %70 to i16
  store i16 %71, ptr %13, align 2
  br label %95

72:                                               ; preds = %5
  %73 = load ptr, ptr %6, align 8
  %74 = load ptr, ptr %7, align 8
  %75 = load ptr, ptr %12, align 8
  %76 = load i16, ptr %9, align 2
  %77 = zext i16 %76 to i32
  %78 = load i16, ptr %13, align 2
  %79 = zext i16 %78 to i32
  %80 = add i32 %77, %79
  %81 = trunc i32 %80 to i16
  %82 = load i16, ptr %10, align 2
  %83 = zext i16 %82 to i32
  %84 = load i16, ptr %13, align 2
  %85 = zext i16 %84 to i32
  %86 = sub i32 %83, %85
  %87 = trunc i32 %86 to i16
  %88 = load i32, ptr @hf_reload_chordleave_predecessors, align 4
  %89 = call i32 @dissect_nodeid_list(ptr noundef %73, ptr noundef %74, ptr noundef %75, i16 noundef zeroext %81, i16 noundef zeroext %87, i32 noundef %88)
  %90 = load i16, ptr %13, align 2
  %91 = zext i16 %90 to i32
  %92 = add i32 %91, %89
  %93 = trunc i32 %92 to i16
  store i16 %93, ptr %13, align 2
  br label %95

94:                                               ; preds = %5
  br label %95

95:                                               ; preds = %94, %72, %50
  %96 = load i16, ptr %13, align 2
  %97 = zext i16 %96 to i32
  call void @llvm.lifetime.end.p0(i64 1, ptr %14) #8
  call void @llvm.lifetime.end.p0(i64 2, ptr %13) #8
  call void @llvm.lifetime.end.p0(i64 8, ptr %12) #8
  call void @llvm.lifetime.end.p0(i64 8, ptr %11) #8
  ret i32 %97
}

; Function Attrs: null_pointer_is_valid sspstrong uwtable
define internal i32 @dissect_leavereq(ptr noundef %0, ptr noundef %1, ptr noundef %2, i16 noundef zeroext %3, i16 noundef zeroext %4) #0 {
  %6 = alloca ptr, align 8
  %7 = alloca ptr, align 8
  %8 = alloca ptr, align 8
  %9 = alloca i16, align 2
  %10 = alloca i16, align 2
  %11 = alloca ptr, align 8
  %12 = alloca ptr, align 8
  %13 = alloca i16, align 2
  %14 = alloca ptr, align 8
  %15 = alloca ptr, align 8
  %16 = alloca i16, align 2
  store ptr %0, ptr %6, align 8
  store ptr %1, ptr %7, align 8
  store ptr %2, ptr %8, align 8
  store i16 %3, ptr %9, align 2
  store i16 %4, ptr %10, align 2
  call void @llvm.lifetime.start.p0(i64 8, ptr %11) #8
  call void @llvm.lifetime.start.p0(i64 8, ptr %12) #8
  call void @llvm.lifetime.start.p0(i64 2, ptr %13) #8
  store i16 0, ptr %13, align 2
  %17 = load ptr, ptr %8, align 8
  %18 = load i32, ptr @hf_reload_leavereq, align 4
  %19 = load ptr, ptr %6, align 8
  %20 = load i16, ptr %9, align 2
  %21 = zext i16 %20 to i32
  %22 = load i16, ptr %10, align 2
  %23 = zext i16 %22 to i32
  %24 = call ptr @proto_tree_add_item(ptr noundef %17, i32 noundef %18, ptr noundef %19, i32 noundef %21, i32 noundef %23, i32 noundef 0)
  store ptr %24, ptr %11, align 8
  %25 = load ptr, ptr %11, align 8
  %26 = load i32, ptr @ett_reload_leavereq, align 4
  %27 = call ptr @proto_item_add_subtree(ptr noundef %25, i32 noundef %26)
  store ptr %27, ptr %12, align 8
  %28 = load i32, ptr @hf_reload_leavereq_leaving_peer_id, align 4
  %29 = load ptr, ptr %6, align 8
  %30 = load ptr, ptr %7, align 8
  %31 = load ptr, ptr %12, align 8
  %32 = load i16, ptr %9, align 2
  %33 = load i16, ptr %10, align 2
  %34 = call i32 @dissect_nodeid(i32 noundef %28, ptr noundef %29, ptr noundef %30, ptr noundef %31, i16 noundef zeroext %32, i16 noundef zeroext %33)
  %35 = load i16, ptr %13, align 2
  %36 = zext i16 %35 to i32
  %37 = add i32 %36, %34
  %38 = trunc i32 %37 to i16
  store i16 %38, ptr %13, align 2
  %39 = load ptr, ptr @reload_topology_plugin, align 8
  %40 = call i32 @strcmp(ptr noundef @.str.5, ptr noundef %39) #9
  %41 = icmp eq i32 0, %40
  br i1 %41, label %42, label %97

42:                                               ; preds = %5
  call void @llvm.lifetime.start.p0(i64 8, ptr %14) #8
  call void @llvm.lifetime.start.p0(i64 8, ptr %15) #8
  call void @llvm.lifetime.start.p0(i64 2, ptr %16) #8
  %43 = load ptr, ptr %12, align 8
  %44 = load i32, ptr @hf_reload_overlay_specific, align 4
  %45 = load ptr, ptr %6, align 8
  %46 = load i16, ptr %9, align 2
  %47 = zext i16 %46 to i32
  %48 = load i16, ptr %13, align 2
  %49 = zext i16 %48 to i32
  %50 = add i32 %47, %49
  %51 = load i16, ptr %10, align 2
  %52 = zext i16 %51 to i32
  %53 = load i16, ptr %13, align 2
  %54 = zext i16 %53 to i32
  %55 = sub i32 %52, %54
  %56 = call ptr @proto_tree_add_item(ptr noundef %43, i32 noundef %44, ptr noundef %45, i32 noundef %50, i32 noundef %55, i32 noundef 0)
  store ptr %56, ptr %14, align 8
  %57 = load ptr, ptr %14, align 8
  %58 = load i32, ptr @ett_reload_overlay_specific, align 4
  %59 = call ptr @proto_item_add_subtree(ptr noundef %57, i32 noundef %58)
  store ptr %59, ptr %15, align 8
  %60 = load ptr, ptr %15, align 8
  %61 = load i32, ptr @hf_reload_length_uint16, align 4
  %62 = load ptr, ptr %6, align 8
  %63 = load i16, ptr %9, align 2
  %64 = zext i16 %63 to i32
  %65 = load i16, ptr %13, align 2
  %66 = zext i16 %65 to i32
  %67 = add i32 %64, %66
  %68 = call ptr @proto_tree_add_item(ptr noundef %60, i32 noundef %61, ptr noundef %62, i32 noundef %67, i32 noundef 2, i32 noundef 0)
  %69 = load ptr, ptr %6, align 8
  %70 = load i16, ptr %9, align 2
  %71 = zext i16 %70 to i32
  %72 = load i16, ptr %13, align 2
  %73 = zext i16 %72 to i32
  %74 = add i32 %71, %73
  %75 = call zeroext i16 @tvb_get_ntohs(ptr noundef %69, i32 noundef %74)
  store i16 %75, ptr %16, align 2
  %76 = load i16, ptr %13, align 2
  %77 = zext i16 %76 to i32
  %78 = add i32 %77, 2
  %79 = trunc i32 %78 to i16
  store i16 %79, ptr %13, align 2
  %80 = load ptr, ptr %6, align 8
  %81 = load ptr, ptr %7, align 8
  %82 = load ptr, ptr %15, align 8
  %83 = load i16, ptr %9, align 2
  %84 = zext i16 %83 to i32
  %85 = load i16, ptr %13, align 2
  %86 = zext i16 %85 to i32
  %87 = add i32 %84, %86
  %88 = trunc i32 %87 to i16
  %89 = load i16, ptr %16, align 2
  %90 = call i32 @dissect_chordleavedata(ptr noundef %80, ptr noundef %81, ptr noundef %82, i16 noundef zeroext %88, i16 noundef zeroext %89)
  %91 = load i16, ptr %16, align 2
  %92 = zext i16 %91 to i32
  %93 = load i16, ptr %13, align 2
  %94 = zext i16 %93 to i32
  %95 = add i32 %94, %92
  %96 = trunc i32 %95 to i16
  store i16 %96, ptr %13, align 2
  call void @llvm.lifetime.end.p0(i64 2, ptr %16) #8
  call void @llvm.lifetime.end.p0(i64 8, ptr %15) #8
  call void @llvm.lifetime.end.p0(i64 8, ptr %14) #8
  br label %117

97:                                               ; preds = %5
  %98 = load ptr, ptr %6, align 8
  %99 = load ptr, ptr %7, align 8
  %100 = load ptr, ptr %12, align 8
  %101 = load i32, ptr @hf_reload_overlay_specific, align 4
  %102 = load i16, ptr %9, align 2
  %103 = zext i16 %102 to i32
  %104 = load i32, ptr @reload_nodeid_length, align 4
  %105 = add i32 %103, %104
  %106 = trunc i32 %105 to i16
  %107 = load i16, ptr %10, align 2
  %108 = zext i16 %107 to i32
  %109 = load i16, ptr %13, align 2
  %110 = zext i16 %109 to i32
  %111 = sub i32 %108, %110
  %112 = call i32 @dissect_opaque(ptr noundef %98, ptr noundef %99, ptr noundef %100, i32 noundef %101, i16 noundef zeroext %106, i16 noundef zeroext 2, i32 noundef %111)
  %113 = load i16, ptr %13, align 2
  %114 = zext i16 %113 to i32
  %115 = add i32 %114, %112
  %116 = trunc i32 %115 to i16
  store i16 %116, ptr %13, align 2
  br label %117

117:                                              ; preds = %97, %42
  %118 = load i16, ptr %13, align 2
  %119 = zext i16 %118 to i32
  call void @llvm.lifetime.end.p0(i64 2, ptr %13) #8
  call void @llvm.lifetime.end.p0(i64 8, ptr %12) #8
  call void @llvm.lifetime.end.p0(i64 8, ptr %11) #8
  ret i32 %119
}