; Function Attrs: null_pointer_is_valid sspstrong uwtable
define internal fastcc void @dissect_leavereq(ptr noundef %0, ptr noundef %1, ptr noundef %2, i16 noundef zeroext %3, i16 noundef zeroext %4) unnamed_addr #0 {
  %6 = load i32, ptr @hf_reload_leavereq, align 4
  %7 = zext i16 %3 to i32
  %8 = zext i16 %4 to i32
  %9 = tail call ptr @proto_tree_add_item(ptr noundef %2, i32 noundef %6, ptr noundef %0, i32 noundef %7, i32 noundef %8, i32 noundef 0)
  %10 = load i32, ptr @ett_reload_leavereq, align 4
  %11 = tail call ptr @proto_item_add_subtree(ptr noundef %9, i32 noundef %10)
  %12 = load i32, ptr @hf_reload_leavereq_leaving_peer_id, align 4
  %13 = tail call fastcc i32 @dissect_nodeid(i32 noundef %12, ptr noundef %0, ptr noundef %1, ptr noundef %11, i16 noundef zeroext %3, i16 noundef zeroext %4)
  %14 = load ptr, ptr @reload_topology_plugin, align 8
  %15 = tail call i32 @strcmp(ptr noundef nonnull dereferenceable(13) @.str.5, ptr noundef %14) #6
  %16 = icmp eq i32 %15, 0
  %17 = load i32, ptr @hf_reload_overlay_specific, align 4
  br i1 %16, label %18, label %46

18:                                               ; preds = %5
  %19 = and i32 %13, 65535
  %20 = add nuw nsw i32 %19, %7
  %21 = sub nsw i32 %8, %19
  %22 = tail call ptr @proto_tree_add_item(ptr noundef %11, i32 noundef %17, ptr noundef %0, i32 noundef %20, i32 noundef %21, i32 noundef 0)
  %23 = load i32, ptr @ett_reload_overlay_specific, align 4
  %24 = tail call ptr @proto_item_add_subtree(ptr noundef %22, i32 noundef %23)
  %25 = load i32, ptr @hf_reload_length_uint16, align 4
  %26 = tail call ptr @proto_tree_add_item(ptr noundef %24, i32 noundef %25, ptr noundef %0, i32 noundef %20, i32 noundef 2, i32 noundef 0)
  %27 = tail call zeroext i16 @tvb_get_ntohs(ptr noundef %0, i32 noundef %20)
  %28 = trunc i32 %13 to i16
  %29 = add i16 %28, 2
  %30 = add i16 %29, %3
  %31 = load i32, ptr @hf_reload_chordleave, align 4
  %32 = zext i16 %30 to i32
  %33 = zext i16 %27 to i32
  %34 = tail call ptr @proto_tree_add_item(ptr noundef %24, i32 noundef %31, ptr noundef %0, i32 noundef %32, i32 noundef %33, i32 noundef 0)
  %35 = load i32, ptr @ett_reload_chordleave, align 4
  %36 = tail call ptr @proto_item_add_subtree(ptr noundef %34, i32 noundef %35)
  %37 = tail call zeroext i8 @tvb_get_uint8(ptr noundef %0, i32 noundef %32)
  %38 = load i32, ptr @hf_reload_chordleave_type, align 4
  %39 = zext i8 %37 to i32
  %40 = tail call ptr @proto_tree_add_uint(ptr noundef %36, i32 noundef %38, ptr noundef %0, i32 noundef %32, i32 noundef 1, i32 noundef %39)
  switch i8 %37, label %dissect_chordleavedata.exit [
    i8 1, label %.sink.split.i
    i8 2, label %41
  ]

41:                                               ; preds = %18
  br label %.sink.split.i

.sink.split.i:                                    ; preds = %41, %18
  %hf_reload_chordleave_predecessors.sink.i = phi ptr [ @hf_reload_chordleave_predecessors, %41 ], [ @hf_reload_chordleave_successors, %18 ]
  %42 = add i16 %30, 1
  %43 = add i16 %27, -1
  %44 = load i32, ptr %hf_reload_chordleave_predecessors.sink.i, align 4
  %45 = tail call fastcc i32 @dissect_nodeid_list(ptr noundef %0, ptr noundef %1, ptr noundef %36, i16 noundef zeroext %42, i16 noundef zeroext %43, i32 noundef %44)
  br label %dissect_chordleavedata.exit

46:                                               ; preds = %5
  %47 = load i32, ptr @reload_nodeid_length, align 4
  %48 = trunc i32 %47 to i16
  %49 = add i16 %3, %48
  %50 = and i32 %13, 65535
  %51 = sub nsw i32 %8, %50
  %52 = tail call fastcc i32 @dissect_opaque_string_or_data(ptr noundef %0, ptr noundef %1, ptr noundef %11, i32 noundef %17, i16 noundef zeroext %49, i16 noundef zeroext 2, i32 noundef %51, i1 noundef zeroext false)
  br label %dissect_chordleavedata.exit

dissect_chordleavedata.exit:                      ; preds = %.sink.split.i, %18, %46
  ret void
}